target datalayout = "e-m:e-p270:32:32-p271:32:32-p272:64:64-i64:64-i128:128-f80:128-n8:16:32:64-S128"
target triple = "x86_64-pc-linux-gnu"

@g_utf8_skip = external constant ptr, align 8

; Function Attrs: nounwind uwtable
define i64 @dt_utf8_strlcpy(ptr noundef %0, ptr noundef %1, i64 noundef %2) #0 {
  %4 = alloca ptr, align 8
  %5 = alloca ptr, align 8
  %6 = alloca i64, align 8
  %7 = alloca ptr, align 8
  store ptr %0, ptr %4, align 8, !tbaa !6
  store ptr %1, ptr %5, align 8, !tbaa !6
  store i64 %2, ptr %6, align 8, !tbaa !13
  call void @llvm.lifetime.start.p0(i64 8, ptr %7) #18
  %8 = load ptr, ptr %5, align 8, !tbaa !6
  store ptr %8, ptr %7, align 8, !tbaa !6
  br label %9

9:                                                ; preds = %24, %3
  %10 = load ptr, ptr %7, align 8, !tbaa !6
  %11 = load ptr, ptr %5, align 8, !tbaa !6
  %12 = ptrtoint ptr %10 to i64
  %13 = ptrtoint ptr %11 to i64
  %14 = sub i64 %12, %13
  %15 = load i64, ptr %6, align 8, !tbaa !13
  %16 = icmp ult i64 %14, %15
  br i1 %16, label %17, label %22

17:                                               ; preds = %9
  %18 = load ptr, ptr %7, align 8, !tbaa !6
  %19 = load i8, ptr %18, align 1, !tbaa !18
  %20 = sext i8 %19 to i32
  %21 = icmp ne i32 %20, 0
  br label %22

22:                                               ; preds = %17, %9
  %23 = phi i1 [ false, %9 ], [ %21, %17 ]
  br i1 %23, label %24, label %35

24:                                               ; preds = %22
  %25 = load ptr, ptr %7, align 8, !tbaa !6
  %26 = load ptr, ptr @g_utf8_skip, align 8, !tbaa !6
  %27 = load ptr, ptr %7, align 8, !tbaa !6
  %28 = load i8, ptr %27, align 1, !tbaa !18
  %29 = zext i8 %28 to i64
  %30 = getelementptr inbounds nuw i8, ptr %26, i64 %29
  %31 = load i8, ptr %30, align 1, !tbaa !18
  %32 = sext i8 %31 to i32
  %33 = sext i32 %32 to i64
  %34 = getelementptr inbounds i8, ptr %25, i64 %33
  store ptr %34, ptr %7, align 8, !tbaa !6
  br label %9

35:                                               ; preds = %22
  %36 = load ptr, ptr %7, align 8, !tbaa !6
  %37 = load ptr, ptr %5, align 8, !tbaa !6
  %38 = ptrtoint ptr %36 to i64
  %39 = ptrtoint ptr %37 to i64
  %40 = sub i64 %38, %39
  %41 = load i64, ptr %6, align 8, !tbaa !13
  %42 = icmp uge i64 %40, %41
  br i1 %42, label %43, label %77

43:                                               ; preds = %35
  %44 = load ptr, ptr %7, align 8, !tbaa !6
  %45 = call ptr @g_utf8_prev_char(ptr noundef %44) #17
  store ptr %45, ptr %7, align 8, !tbaa !6
  %46 = load ptr, ptr %4, align 8, !tbaa !6
  %47 = load ptr, ptr %5, align 8, !tbaa !6
  %48 = load ptr, ptr %7, align 8, !tbaa !6
  %49 = load ptr, ptr %5, align 8, !tbaa !6
  %50 = ptrtoint ptr %48 to i64
  %51 = ptrtoint ptr %49 to i64
  %52 = sub i64 %50, %51
  %53 = call ptr @strncpy(ptr noundef %46, ptr noundef %47, i64 noundef %52) #18
  %54 = load ptr, ptr %4, align 8, !tbaa !6
  %55 = load ptr, ptr %7, align 8, !tbaa !6
  %56 = load ptr, ptr %5, align 8, !tbaa !6
  %57 = ptrtoint ptr %55 to i64
  %58 = ptrtoint ptr %56 to i64
  %59 = sub i64 %57, %58
  %60 = getelementptr inbounds i8, ptr %54, i64 %59
  store i8 0, ptr %60, align 1, !tbaa !18
  br label %61

61:                                               ; preds = %65, %43
  %62 = load ptr, ptr %7, align 8, !tbaa !6
  %63 = load i8, ptr %62, align 1, !tbaa !18
  %64 = icmp ne i8 %63, 0
  br i1 %64, label %65, label %76

65:                                               ; preds = %61
  %66 = load ptr, ptr %7, align 8, !tbaa !6
  %67 = load ptr, ptr @g_utf8_skip, align 8, !tbaa !6
  %68 = load ptr, ptr %7, align 8, !tbaa !6
  %69 = load i8, ptr %68, align 1, !tbaa !18
  %70 = zext i8 %69 to i64
  %71 = getelementptr inbounds nuw i8, ptr %67, i64 %70
  %72 = load i8, ptr %71, align 1, !tbaa !18
  %73 = sext i8 %72 to i32
  %74 = sext i32 %73 to i64
  %75 = getelementptr inbounds i8, ptr %66, i64 %74
  store ptr %75, ptr %7, align 8, !tbaa !6
  br label %61

76:                                               ; preds = %61
  br label %93

77:                                               ; preds = %35
  %78 = load ptr, ptr %4, align 8, !tbaa !6
  %79 = load ptr, ptr %5, align 8, !tbaa !6
  %80 = load ptr, ptr %7, align 8, !tbaa !6
  %81 = load ptr, ptr %5, align 8, !tbaa !6
  %82 = ptrtoint ptr %80 to i64
  %83 = ptrtoint ptr %81 to i64
  %84 = sub i64 %82, %83
  %85 = call ptr @strncpy(ptr noundef %78, ptr noundef %79, i64 noundef %84) #18
  %86 = load ptr, ptr %4, align 8, !tbaa !6
  %87 = load ptr, ptr %7, align 8, !tbaa !6
  %88 = load ptr, ptr %5, align 8, !tbaa !6
  %89 = ptrtoint ptr %87 to i64
  %90 = ptrtoint ptr %88 to i64
  %91 = sub i64 %89, %90
  %92 = getelementptr inbounds i8, ptr %86, i64 %91
  store i8 0, ptr %92, align 1, !tbaa !18
  br label %93

93:                                               ; preds = %77, %76
  %94 = load ptr, ptr %7, align 8, !tbaa !6
  %95 = load ptr, ptr %5, align 8, !tbaa !6
  %96 = ptrtoint ptr %94 to i64
  %97 = ptrtoint ptr %95 to i64
  %98 = sub i64 %96, %97
  call void @llvm.lifetime.end.p0(i64 8, ptr %7) #18
  ret i64 %98
}