; Function Attrs: nofree nounwind memory(read, argmem: readwrite) uwtable
define noundef i64 @dt_utf8_strlcpy(ptr noundef %0, ptr noundef %1, i64 noundef %2) local_unnamed_addr #9 {
  %4 = ptrtoint ptr %1 to i64
  %.not43 = icmp eq i64 %2, 0
  br i1 %.not43, label %.critedge, label %.lr.ph

.lr.ph:                                           ; preds = %3
  %5 = load ptr, ptr @g_utf8_skip, align 8
  %6 = load i8, ptr %1, align 1, !tbaa !11
  %.not56 = icmp eq i8 %6, 0
  br i1 %.not56, label %._crit_edge, label %.lr.ph58

7:                                                ; preds = %.lr.ph58
  %8 = load i8, ptr %14, align 1, !tbaa !11
  %.not = icmp eq i8 %8, 0
  br i1 %.not, label %._crit_edge, label %.lr.ph58

.lr.ph58:                                         ; preds = %.lr.ph, %7
  %9 = phi i8 [ %8, %7 ], [ %6, %.lr.ph ]
  %.03757 = phi ptr [ %14, %7 ], [ %1, %.lr.ph ]
  %10 = zext i8 %9 to i64
  %11 = getelementptr inbounds nuw i8, ptr %5, i64 %10
  %12 = load i8, ptr %11, align 1, !tbaa !11
  %13 = sext i8 %12 to i64
  %14 = getelementptr inbounds i8, ptr %.03757, i64 %13
  %15 = ptrtoint ptr %14 to i64
  %16 = sub i64 %15, %4
  %17 = icmp ult i64 %16, %2
  br i1 %17, label %7, label %.critedge

.critedge:                                        ; preds = %.lr.ph58, %3
  %.0.lcssa = phi ptr [ %1, %3 ], [ %14, %.lr.ph58 ]
  %18 = tail call ptr @g_utf8_prev_char(ptr noundef %.0.lcssa) #26
  %19 = ptrtoint ptr %18 to i64
  %20 = sub i64 %19, %4
  %21 = tail call ptr @strncpy(ptr noundef %0, ptr noundef %1, i64 noundef %20) #27
  %22 = getelementptr inbounds i8, ptr %0, i64 %20
  store i8 0, ptr %22, align 1, !tbaa !11
  %23 = load i8, ptr %18, align 1, !tbaa !11
  %.not3239 = icmp eq i8 %23, 0
  br i1 %.not3239, label %.loopexit, label %.lr.ph41

.lr.ph41:                                         ; preds = %.critedge
  %24 = load ptr, ptr @g_utf8_skip, align 8, !tbaa !6
  br label %25

25:                                               ; preds = %.lr.ph41, %25
  %26 = phi i8 [ %23, %.lr.ph41 ], [ %32, %25 ]
  %.140 = phi ptr [ %18, %.lr.ph41 ], [ %31, %25 ]
  %27 = zext i8 %26 to i64
  %28 = getelementptr inbounds nuw i8, ptr %24, i64 %27
  %29 = load i8, ptr %28, align 1, !tbaa !11
  %30 = sext i8 %29 to i64
  %31 = getelementptr inbounds i8, ptr %.140, i64 %30
  %32 = load i8, ptr %31, align 1, !tbaa !11
  %.not32 = icmp eq i8 %32, 0
  br i1 %.not32, label %.loopexit, label %25

._crit_edge:                                      ; preds = %7, %.lr.ph
  %.lcssa53 = phi i64 [ 0, %.lr.ph ], [ %16, %7 ]
  %.037.lcssa = phi ptr [ %1, %.lr.ph ], [ %14, %7 ]
  %33 = tail call ptr @strncpy(ptr noundef %0, ptr noundef nonnull %1, i64 noundef %.lcssa53) #27
  %34 = getelementptr inbounds i8, ptr %0, i64 %.lcssa53
  store i8 0, ptr %34, align 1, !tbaa !11
  br label %.loopexit

.loopexit:                                        ; preds = %25, %.critedge, %._crit_edge
  %.2 = phi ptr [ %.037.lcssa, %._crit_edge ], [ %18, %.critedge ], [ %31, %25 ]
  %35 = ptrtoint ptr %.2 to i64
  %36 = sub i64 %35, %4
  ret i64 %36
}